target datalayout = "e-m:e-p270:32:32-p271:32:32-p272:64:64-i64:64-i128:128-f80:128-n8:16:32:64-S128"
target triple = "x86_64-pc-linux-gnu"

%"class.cvc5::internal::NodeTemplate" = type { ptr }
%"class.cvc5::internal::theory::arith::linear::DioSolver" = type { %"class.cvc5::internal::EnvObj", %"class.std::vector", %"class.cvc5::context::CDO", %"class.cvc5::context::CDList", %"class.cvc5::context::CDO", %"class.std::unordered_map", %"class.cvc5::context::CDList.10", %"class.cvc5::context::CDList.17", %"class.std::deque", %"class.cvc5::context::CDList.27", %"class.cvc5::context::CDO", %"class.cvc5::context::CDMaybe", %"class.cvc5::context::CDO.32", %"class.cvc5::context::CDO.33", %"class.cvc5::context::CDO", %"class.cvc5::context::CDO", %"class.cvc5::context::CDQueue", %"class.cvc5::internal::theory::arith::linear::DioSolver::Statistics" }
%"class.cvc5::internal::EnvObj" = type { ptr, ptr }
%"class.std::vector" = type { %"struct.std::_Vector_base" }
%"struct.std::_Vector_base" = type { %"struct.std::_Vector_base<cvc5::internal::theory::arith::linear::Variable, std::allocator<cvc5::internal::theory::arith::linear::Variable>>::_Vector_impl" }
%"struct.std::_Vector_base<cvc5::internal::theory::arith::linear::Variable, std::allocator<cvc5::internal::theory::arith::linear::Variable>>::_Vector_impl" = type { %"struct.std::_Vector_base<cvc5::internal::theory::arith::linear::Variable, std::allocator<cvc5::internal::theory::arith::linear::Variable>>::_Vector_impl_data" }
%"struct.std::_Vector_base<cvc5::internal::theory::arith::linear::Variable, std::allocator<cvc5::internal::theory::arith::linear::Variable>>::_Vector_impl_data" = type { ptr, ptr, ptr }
%"class.cvc5::context::CDList" = type <{ %"class.cvc5::context::ContextObj", %"class.std::vector.0", i64, i8, [7 x i8] }>
%"class.cvc5::context::ContextObj" = type { ptr, ptr, ptr, ptr, ptr }
%"class.std::vector.0" = type { %"struct.std::_Vector_base.1" }
%"struct.std::_Vector_base.1" = type { %"struct.std::_Vector_base<cvc5::internal::theory::arith::linear::DioSolver::InputConstraint, std::allocator<cvc5::internal::theory::arith::linear::DioSolver::InputConstraint>>::_Vector_impl" }
%"struct.std::_Vector_base<cvc5::internal::theory::arith::linear::DioSolver::InputConstraint, std::allocator<cvc5::internal::theory::arith::linear::DioSolver::InputConstraint>>::_Vector_impl" = type { %"struct.std::_Vector_base<cvc5::internal::theory::arith::linear::DioSolver::InputConstraint, std::allocator<cvc5::internal::theory::arith::linear::DioSolver::InputConstraint>>::_Vector_impl_data" }
%"struct.std::_Vector_base<cvc5::internal::theory::arith::linear::DioSolver::InputConstraint, std::allocator<cvc5::internal::theory::arith::linear::DioSolver::InputConstraint>>::_Vector_impl_data" = type { ptr, ptr, ptr }
%"class.std::unordered_map" = type { %"class.std::_Hashtable" }
%"class.std::_Hashtable" = type { ptr, i64, %"struct.std::__detail::_Hash_node_base", i64, %"struct.std::__detail::_Prime_rehash_policy", ptr }
%"struct.std::__detail::_Hash_node_base" = type { ptr }
%"struct.std::__detail::_Prime_rehash_policy" = type { float, i64 }
%"class.cvc5::context::CDList.10" = type <{ %"class.cvc5::context::ContextObj", %"class.std::vector.11", i64, i8, [7 x i8] }>
%"class.std::vector.11" = type { %"struct.std::_Vector_base.12" }
%"struct.std::_Vector_base.12" = type { %"struct.std::_Vector_base<cvc5::internal::theory::arith::linear::DioSolver::Constraint, std::allocator<cvc5::internal::theory::arith::linear::DioSolver::Constraint>>::_Vector_impl" }
%"struct.std::_Vector_base<cvc5::internal::theory::arith::linear::DioSolver::Constraint, std::allocator<cvc5::internal::theory::arith::linear::DioSolver::Constraint>>::_Vector_impl" = type { %"struct.std::_Vector_base<cvc5::internal::theory::arith::linear::DioSolver::Constraint, std::allocator<cvc5::internal::theory::arith::linear::DioSolver::Constraint>>::_Vector_impl_data" }
%"struct.std::_Vector_base<cvc5::internal::theory::arith::linear::DioSolver::Constraint, std::allocator<cvc5::internal::theory::arith::linear::DioSolver::Constraint>>::_Vector_impl_data" = type { ptr, ptr, ptr }
%"class.cvc5::context::CDList.17" = type <{ %"class.cvc5::context::ContextObj", %"class.std::vector.18", i64, i8, [7 x i8] }>
%"class.std::vector.18" = type { %"struct.std::_Vector_base.19" }
%"struct.std::_Vector_base.19" = type { %"struct.std::_Vector_base<cvc5::internal::theory::arith::linear::DioSolver::Substitution, std::allocator<cvc5::internal::theory::arith::linear::DioSolver::Substitution>>::_Vector_impl" }
%"struct.std::_Vector_base<cvc5::internal::theory::arith::linear::DioSolver::Substitution, std::allocator<cvc5::internal::theory::arith::linear::DioSolver::Substitution>>::_Vector_impl" = type { %"struct.std::_Vector_base<cvc5::internal::theory::arith::linear::DioSolver::Substitution, std::allocator<cvc5::internal::theory::arith::linear::DioSolver::Substitution>>::_Vector_impl_data" }
%"struct.std::_Vector_base<cvc5::internal::theory::arith::linear::DioSolver::Substitution, std::allocator<cvc5::internal::theory::arith::linear::DioSolver::Substitution>>::_Vector_impl_data" = type { ptr, ptr, ptr }
%"class.std::deque" = type { %"class.std::_Deque_base" }
%"class.std::_Deque_base" = type { %"struct.std::_Deque_base<unsigned long, std::allocator<unsigned long>>::_Deque_impl" }
%"struct.std::_Deque_base<unsigned long, std::allocator<unsigned long>>::_Deque_impl" = type { %"struct.std::_Deque_base<unsigned long, std::allocator<unsigned long>>::_Deque_impl_data" }
%"struct.std::_Deque_base<unsigned long, std::allocator<unsigned long>>::_Deque_impl_data" = type { ptr, i64, %"struct.std::_Deque_iterator", %"struct.std::_Deque_iterator" }
%"struct.std::_Deque_iterator" = type { ptr, ptr, ptr, ptr }
%"class.cvc5::context::CDList.27" = type <{ %"class.cvc5::context::ContextObj", %"class.std::vector.28", i64, i8, [7 x i8] }>
%"class.std::vector.28" = type { %"struct.std::_Vector_base.29" }
%"struct.std::_Vector_base.29" = type { %"struct.std::_Vector_base<unsigned long, std::allocator<unsigned long>>::_Vector_impl" }
%"struct.std::_Vector_base<unsigned long, std::allocator<unsigned long>>::_Vector_impl" = type { %"struct.std::_Vector_base<unsigned long, std::allocator<unsigned long>>::_Vector_impl_data" }
%"struct.std::_Vector_base<unsigned long, std::allocator<unsigned long>>::_Vector_impl_data" = type { ptr, ptr, ptr }
%"class.cvc5::context::CDMaybe" = type { %"class.cvc5::context::CDO.31" }
%"class.cvc5::context::CDO.31" = type { %"class.cvc5::context::ContextObj", %"struct.std::pair" }
%"struct.std::pair" = type { i8, i64 }
%"class.cvc5::context::CDO.32" = type <{ %"class.cvc5::context::ContextObj", i32, [4 x i8] }>
%"class.cvc5::context::CDO.33" = type <{ %"class.cvc5::context::ContextObj", i8, [7 x i8] }>
%"class.cvc5::context::CDO" = type { %"class.cvc5::context::ContextObj", i64 }
%"class.cvc5::context::CDQueue" = type { %"class.cvc5::context::CDList.base.30", i64, i64 }
%"class.cvc5::context::CDList.base.30" = type <{ %"class.cvc5::context::ContextObj", %"class.std::vector.28", i64, i8, i8 }>
%"class.cvc5::internal::theory::arith::linear::DioSolver::Statistics" = type { %"class.cvc5::internal::IntStat", %"class.cvc5::internal::IntStat", %"class.cvc5::internal::IntStat", %"class.cvc5::internal::IntStat", %"class.cvc5::internal::TimerStat", %"class.cvc5::internal::TimerStat" }
%"class.cvc5::internal::IntStat" = type { %"class.cvc5::internal::ValueStat" }
%"class.cvc5::internal::ValueStat" = type { ptr }
%"class.cvc5::internal::TimerStat" = type { ptr }
%"class.cvc5::internal::theory::arith::linear::SumPair" = type { %"class.cvc5::internal::theory::arith::linear::NodeWrapper" }
%"class.cvc5::internal::theory::arith::linear::NodeWrapper" = type { %"class.cvc5::internal::NodeTemplate" }
%"class.cvc5::internal::CodeTimer" = type <{ ptr, i8, [7 x i8] }>

; Function Attrs: mustprogress nounwind uwtable
define linkonce_odr hidden noundef nonnull align 8 dereferenceable(16) ptr @_ZNK4cvc57context3CDOISt4pairIbmEE3getEv(ptr noundef nonnull align 8 dereferenceable(56) %0) #5 comdat align 2 {
  %2 = alloca ptr, align 8
  store ptr %0, ptr %2, align 8, !tbaa !595
  %3 = load ptr, ptr %2, align 8
  %4 = getelementptr inbounds nuw %"class.cvc5::context::CDO.31", ptr %3, i32 0, i32 1
  ret ptr %4
}

; Function Attrs: mustprogress nounwind uwtable
define linkonce_odr hidden noundef nonnull align 8 dereferenceable(8) ptr @_ZNK4cvc57context7CDMaybeImE3getEv(ptr noundef nonnull align 8 dereferenceable(56) %0) #5 comdat align 2 {
  %2 = alloca ptr, align 8
  store ptr %0, ptr %2, align 8, !tbaa !89
  %3 = load ptr, ptr %2, align 8
  %4 = getelementptr inbounds nuw %"class.cvc5::context::CDMaybe", ptr %3, i32 0, i32 0
  %5 = call noundef nonnull align 8 dereferenceable(16) ptr @_ZNK4cvc57context3CDOISt4pairIbmEE3getEv(ptr noundef nonnull align 8 dereferenceable(56) %4)
  %6 = getelementptr inbounds nuw %"struct.std::pair", ptr %5, i32 0, i32 1
  ret ptr %6
}

; Function Attrs: mustprogress uwtable
define linkonce_odr hidden noundef i64 @_ZNK4cvc58internal6theory5arith6linear9DioSolver16getConflictIndexEv(ptr noundef nonnull align 8 dereferenceable(1032) %0) #4 comdat align 2 {
  %2 = alloca ptr, align 8
  store ptr %0, ptr %2, align 8, !tbaa !3
  %3 = load ptr, ptr %2, align 8
  %4 = getelementptr inbounds nuw %"class.cvc5::internal::theory::arith::linear::DioSolver", ptr %3, i32 0, i32 11
  %5 = call noundef nonnull align 8 dereferenceable(8) ptr @_ZNK4cvc57context7CDMaybeImE3getEv(ptr noundef nonnull align 8 dereferenceable(56) %4)
  %6 = load i64, ptr %5, align 8, !tbaa !12
  ret i64 %6
}

; Function Attrs: mustprogress uwtable
define hidden void @_ZN4cvc58internal6theory5arith6linear9DioSolver22processEquationsForCutEv(ptr dead_on_unwind noalias writable sret(%"class.cvc5::internal::theory::arith::linear::SumPair") align 8 %0, ptr noundef nonnull align 8 dereferenceable(1032) %1) #4 align 2 personality ptr @__gxx_personality_v0 {
  %3 = alloca ptr, align 8
  %4 = alloca ptr, align 8
  %5 = alloca %"class.cvc5::internal::CodeTimer", align 8
  %6 = alloca ptr, align 8
  %7 = alloca i32, align 4
  %8 = alloca i32, align 4
  store ptr %0, ptr %3, align 8
  store ptr %1, ptr %4, align 8, !tbaa !3
  %9 = load ptr, ptr %4, align 8
  call void @llvm.lifetime.start.p0(i64 16, ptr %5) #3
  %10 = getelementptr inbounds nuw %"class.cvc5::internal::theory::arith::linear::DioSolver", ptr %9, i32 0, i32 17
  %11 = getelementptr inbounds nuw %"class.cvc5::internal::theory::arith::linear::DioSolver::Statistics", ptr %10, i32 0, i32 5
  call void @_ZN4cvc58internal9CodeTimerC1ERNS0_9TimerStatEb(ptr noundef nonnull align 8 dereferenceable(9) %5, ptr noundef nonnull align 8 dereferenceable(8) %11, i1 noundef zeroext false)
  %12 = getelementptr inbounds nuw %"class.cvc5::internal::theory::arith::linear::DioSolver", ptr %9, i32 0, i32 17
  %13 = getelementptr inbounds nuw %"class.cvc5::internal::theory::arith::linear::DioSolver::Statistics", ptr %12, i32 0, i32 1
  %14 = invoke noundef nonnull align 8 dereferenceable(8) ptr @_ZN4cvc58internal7IntStatppEv(ptr noundef nonnull align 8 dereferenceable(8) %13)
          to label %15 unwind label %26

15:                                               ; preds = %2
  %16 = invoke noundef zeroext i1 @_ZN4cvc58internal6theory5arith6linear9DioSolver16processEquationsEb(ptr noundef nonnull align 8 dereferenceable(1032) %9, i1 noundef zeroext true)
          to label %17 unwind label %26

17:                                               ; preds = %15
  br i1 %16, label %18, label %30

18:                                               ; preds = %17
  %19 = getelementptr inbounds nuw %"class.cvc5::internal::theory::arith::linear::DioSolver", ptr %9, i32 0, i32 17
  %20 = getelementptr inbounds nuw %"class.cvc5::internal::theory::arith::linear::DioSolver::Statistics", ptr %19, i32 0, i32 2
  %21 = invoke noundef nonnull align 8 dereferenceable(8) ptr @_ZN4cvc58internal7IntStatppEv(ptr noundef nonnull align 8 dereferenceable(8) %20)
          to label %22 unwind label %26

22:                                               ; preds = %18
  %23 = invoke noundef i64 @_ZNK4cvc58internal6theory5arith6linear9DioSolver16getConflictIndexEv(ptr noundef nonnull align 8 dereferenceable(1032) %9)
          to label %24 unwind label %26

24:                                               ; preds = %22
  invoke void @_ZN4cvc58internal6theory5arith6linear9DioSolver11purifyIndexEm(ptr dead_on_unwind writable sret(%"class.cvc5::internal::theory::arith::linear::SumPair") align 8 %0, ptr noundef nonnull align 8 dereferenceable(1032) %9, i64 noundef %23)
          to label %25 unwind label %26

25:                                               ; preds = %24
  store i32 1, ptr %8, align 4
  br label %32

26:                                               ; preds = %30, %24, %22, %18, %15, %2
  %27 = landingpad { ptr, i32 }
          cleanup
  %28 = extractvalue { ptr, i32 } %27, 0
  store ptr %28, ptr %6, align 8
  %29 = extractvalue { ptr, i32 } %27, 1
  store i32 %29, ptr %7, align 4
  call void @_ZN4cvc58internal9CodeTimerD1Ev(ptr noundef nonnull align 8 dereferenceable(9) %5) #3
  call void @llvm.lifetime.end.p0(i64 16, ptr %5) #3
  br label %33

30:                                               ; preds = %17
  invoke void @_ZN4cvc58internal6theory5arith6linear7SumPair6mkZeroEv(ptr dead_on_unwind writable sret(%"class.cvc5::internal::theory::arith::linear::SumPair") align 8 %0)
          to label %31 unwind label %26

31:                                               ; preds = %30
  store i32 1, ptr %8, align 4
  br label %32

32:                                               ; preds = %31, %25
  call void @_ZN4cvc58internal9CodeTimerD1Ev(ptr noundef nonnull align 8 dereferenceable(9) %5) #3
  call void @llvm.lifetime.end.p0(i64 16, ptr %5) #3
  ret void

33:                                               ; preds = %26
  %34 = load ptr, ptr %6, align 8
  %35 = load i32, ptr %7, align 4
  %36 = insertvalue { ptr, i32 } poison, ptr %34, 0
  %37 = insertvalue { ptr, i32 } %36, i32 %35, 1
  resume { ptr, i32 } %37
}