; Function Attrs: mustprogress uwtable
define hidden void @_ZN4cvc58internal6theory5arith6linear9DioSolver22processEquationsForCutEv(ptr dead_on_unwind noalias writable sret(%"class.cvc5::internal::theory::arith::linear::SumPair") align 8 %0, ptr noundef nonnull align 8 dereferenceable(1032) %1) local_unnamed_addr #3 align 2 personality ptr @__gxx_personality_v0 {
  %3 = alloca %"class.cvc5::internal::CodeTimer", align 8
  call void @llvm.lifetime.start.p0(i64 16, ptr nonnull %3) #25
  %4 = getelementptr inbounds nuw i8, ptr %1, i64 1024
  call void @_ZN4cvc58internal9CodeTimerC1ERNS0_9TimerStatEb(ptr noundef nonnull align 8 dereferenceable(9) %3, ptr noundef nonnull align 8 dereferenceable(8) %4, i1 noundef zeroext false)
  %5 = getelementptr inbounds nuw i8, ptr %1, i64 992
  %6 = invoke noundef nonnull align 8 dereferenceable(8) ptr @_ZN4cvc58internal7IntStatppEv(ptr noundef nonnull align 8 dereferenceable(8) %5)
          to label %7 unwind label %16

7:                                                ; preds = %2
  %8 = invoke noundef zeroext i1 @_ZN4cvc58internal6theory5arith6linear9DioSolver16processEquationsEb(ptr noundef nonnull align 8 dereferenceable(1032) %1, i1 noundef zeroext true)
          to label %9 unwind label %16

9:                                                ; preds = %7
  br i1 %8, label %10, label %18

10:                                               ; preds = %9
  %11 = getelementptr inbounds nuw i8, ptr %1, i64 1000
  %12 = invoke noundef nonnull align 8 dereferenceable(8) ptr @_ZN4cvc58internal7IntStatppEv(ptr noundef nonnull align 8 dereferenceable(8) %11)
          to label %13 unwind label %16

13:                                               ; preds = %10
  %14 = getelementptr inbounds nuw i8, ptr %1, i64 688
  %15 = load i64, ptr %14, align 8, !tbaa !122
  invoke void @_ZN4cvc58internal6theory5arith6linear9DioSolver11purifyIndexEm(ptr dead_on_unwind writable sret(%"class.cvc5::internal::theory::arith::linear::SumPair") align 8 %0, ptr noundef nonnull align 8 dereferenceable(1032) %1, i64 noundef %15)
          to label %19 unwind label %16

16:                                               ; preds = %18, %13, %10, %7, %2
  %17 = landingpad { ptr, i32 }
          cleanup
  call void @_ZN4cvc58internal9CodeTimerD1Ev(ptr noundef nonnull align 8 dereferenceable(9) %3) #25
  call void @llvm.lifetime.end.p0(i64 16, ptr nonnull %3) #25
  resume { ptr, i32 } %17

18:                                               ; preds = %9
  invoke void @_ZN4cvc58internal6theory5arith6linear7SumPair6mkZeroEv(ptr dead_on_unwind writable sret(%"class.cvc5::internal::theory::arith::linear::SumPair") align 8 %0)
          to label %19 unwind label %16

19:                                               ; preds = %18, %13
  call void @_ZN4cvc58internal9CodeTimerD1Ev(ptr noundef nonnull align 8 dereferenceable(9) %3) #25
  call void @llvm.lifetime.end.p0(i64 16, ptr nonnull %3) #25
  ret void
}